target datalayout = "e-m:e-p270:32:32-p271:32:32-p272:64:64-i64:64-i128:128-f80:128-n8:16:32:64-S128"
target triple = "x86_64-pc-linux-gnu"

%"class.p2t::SweepContext" = type { %"class.std::vector.0", %"struct.p2t::SweepContext::Basin", %"struct.p2t::SweepContext::EdgeEvent", %"class.std::vector.5", %"class.std::__cxx11::list", %"class.std::vector", ptr, ptr, ptr, ptr, ptr, ptr }
%"class.std::vector.0" = type { %"struct.std::_Vector_base.1" }
%"struct.std::_Vector_base.1" = type { %"struct.std::_Vector_base<p2t::Edge *, std::allocator<p2t::Edge *>>::_Vector_impl" }
%"struct.std::_Vector_base<p2t::Edge *, std::allocator<p2t::Edge *>>::_Vector_impl" = type { %"struct.std::_Vector_base<p2t::Edge *, std::allocator<p2t::Edge *>>::_Vector_impl_data" }
%"struct.std::_Vector_base<p2t::Edge *, std::allocator<p2t::Edge *>>::_Vector_impl_data" = type { ptr, ptr, ptr }
%"struct.p2t::SweepContext::Basin" = type <{ ptr, ptr, ptr, double, i8, [7 x i8] }>
%"struct.p2t::SweepContext::EdgeEvent" = type <{ ptr, i8, [7 x i8] }>
%"class.std::vector.5" = type { %"struct.std::_Vector_base.6" }
%"struct.std::_Vector_base.6" = type { %"struct.std::_Vector_base<p2t::Triangle *, std::allocator<p2t::Triangle *>>::_Vector_impl" }
%"struct.std::_Vector_base<p2t::Triangle *, std::allocator<p2t::Triangle *>>::_Vector_impl" = type { %"struct.std::_Vector_base<p2t::Triangle *, std::allocator<p2t::Triangle *>>::_Vector_impl_data" }
%"struct.std::_Vector_base<p2t::Triangle *, std::allocator<p2t::Triangle *>>::_Vector_impl_data" = type { ptr, ptr, ptr }
%"class.std::__cxx11::list" = type { %"class.std::__cxx11::_List_base" }
%"class.std::__cxx11::_List_base" = type { %"struct.std::__cxx11::_List_base<p2t::Triangle *, std::allocator<p2t::Triangle *>>::_List_impl" }
%"struct.std::__cxx11::_List_base<p2t::Triangle *, std::allocator<p2t::Triangle *>>::_List_impl" = type { %"struct.std::__detail::_List_node_header" }
%"struct.std::__detail::_List_node_header" = type { %"struct.std::__detail::_List_node_base", i64 }
%"struct.std::__detail::_List_node_base" = type { ptr, ptr }
%"class.std::vector" = type { %"struct.std::_Vector_base" }
%"struct.std::_Vector_base" = type { %"struct.std::_Vector_base<p2t::Point *, std::allocator<p2t::Point *>>::_Vector_impl" }
%"struct.std::_Vector_base<p2t::Point *, std::allocator<p2t::Point *>>::_Vector_impl" = type { %"struct.std::_Vector_base<p2t::Point *, std::allocator<p2t::Point *>>::_Vector_impl_data" }
%"struct.std::_Vector_base<p2t::Point *, std::allocator<p2t::Point *>>::_Vector_impl_data" = type { ptr, ptr, ptr }
%"struct.std::_List_iterator" = type { ptr }
%"struct.std::_List_node" = type { %"struct.std::__detail::_List_node_base", %"struct.__gnu_cxx::__aligned_membuf" }
%"struct.__gnu_cxx::__aligned_membuf" = type { [8 x i8] }
%"struct.std::__allocated_ptr" = type { ptr, ptr }

; Function Attrs: mustprogress nounwind uwtable
define linkonce_odr noundef i64 @_ZNKSt15__new_allocatorISt10_List_nodeIPN3p2t8TriangleEEE11_M_max_sizeEv(ptr noundef nonnull align 1 dereferenceable(1) %0) #1 comdat align 2 {
  %2 = alloca ptr, align 8
  store ptr %0, ptr %2, align 8
  ret i64 384307168202282325
}

; Function Attrs: mustprogress nounwind uwtable
define linkonce_odr void @_ZNSt15__new_allocatorISt10_List_nodeIPN3p2t8TriangleEEE10deallocateEPS4_m(ptr noundef nonnull align 1 dereferenceable(1) %0, ptr noundef %1, i64 noundef %2) #1 comdat align 2 {
  %4 = alloca ptr, align 8
  %5 = alloca ptr, align 8
  %6 = alloca i64, align 8
  store ptr %0, ptr %4, align 8
  store ptr %1, ptr %5, align 8
  store i64 %2, ptr %6, align 8
  %7 = load ptr, ptr %5, align 8
  %8 = load i64, ptr %6, align 8
  %9 = mul i64 %8, 24
  call void @_ZdlPvm(ptr noundef %7, i64 noundef %9) #17
  ret void
}

; Function Attrs: mustprogress nounwind uwtable
define linkonce_odr hidden noundef ptr @_ZN9__gnu_cxx16__aligned_membufIPN3p2t8TriangleEE7_M_addrEv(ptr noundef nonnull align 8 dereferenceable(8) %0) #1 comdat align 2 {
  %2 = alloca ptr, align 8
  store ptr %0, ptr %2, align 8
  %3 = load ptr, ptr %2, align 8
  %4 = getelementptr inbounds nuw %"struct.__gnu_cxx::__aligned_membuf", ptr %3, i32 0, i32 0
  ret ptr %4
}

; Function Attrs: mustprogress uwtable
define linkonce_odr noundef ptr @_ZNSt15__new_allocatorISt10_List_nodeIPN3p2t8TriangleEEE8allocateEmPKv(ptr noundef nonnull align 1 dereferenceable(1) %0, i64 noundef %1, ptr noundef %2) #0 comdat align 2 {
  %4 = alloca ptr, align 8
  %5 = alloca i64, align 8
  %6 = alloca ptr, align 8
  store ptr %0, ptr %4, align 8
  store i64 %1, ptr %5, align 8
  store ptr %2, ptr %6, align 8
  %7 = load ptr, ptr %4, align 8
  %8 = load i64, ptr %5, align 8
  %9 = call noundef i64 @_ZNKSt15__new_allocatorISt10_List_nodeIPN3p2t8TriangleEEE11_M_max_sizeEv(ptr noundef nonnull align 1 dereferenceable(1) %7) #15
  %10 = icmp ugt i64 %8, %9
  %11 = zext i1 %10 to i64
  %12 = call i64 @llvm.expect.i64(i64 %11, i64 0)
  %13 = icmp ne i64 %12, 0
  br i1 %13, label %14, label %19

14:                                               ; preds = %3
  %15 = load i64, ptr %5, align 8
  %16 = icmp ugt i64 %15, 768614336404564650
  br i1 %16, label %17, label %18

17:                                               ; preds = %14
  call void @_ZSt28__throw_bad_array_new_lengthv() #19
  unreachable

18:                                               ; preds = %14
  call void @_ZSt17__throw_bad_allocv() #19
  unreachable

19:                                               ; preds = %3
  %20 = load i64, ptr %5, align 8
  %21 = mul i64 %20, 24
  %22 = call noalias noundef nonnull ptr @_Znwm(i64 noundef %21) #16
  ret ptr %22
}

; Function Attrs: noinline noreturn nounwind uwtable
define linkonce_odr hidden void @__clang_call_terminate(ptr noundef %0) #9 comdat {
  %2 = call ptr @__cxa_begin_catch(ptr %0) #15
  call void @_ZSt9terminatev() #18
  unreachable
}

; Function Attrs: mustprogress uwtable
define linkonce_odr void @_ZNSt16allocator_traitsISaISt10_List_nodeIPN3p2t8TriangleEEEE10deallocateERS5_PS4_m(ptr noundef nonnull align 1 dereferenceable(1) %0, ptr noundef %1, i64 noundef %2) #0 comdat align 2 {
  %4 = alloca ptr, align 8
  %5 = alloca ptr, align 8
  %6 = alloca i64, align 8
  store ptr %0, ptr %4, align 8
  store ptr %1, ptr %5, align 8
  store i64 %2, ptr %6, align 8
  %7 = load ptr, ptr %4, align 8
  %8 = load ptr, ptr %5, align 8
  %9 = load i64, ptr %6, align 8
  call void @_ZNSt15__new_allocatorISt10_List_nodeIPN3p2t8TriangleEEE10deallocateEPS4_m(ptr noundef nonnull align 1 dereferenceable(1) %7, ptr noundef %8, i64 noundef %9)
  ret void
}

; Function Attrs: mustprogress nounwind uwtable
define linkonce_odr void @_ZNSt15__new_allocatorISt10_List_nodeIPN3p2t8TriangleEEE9constructIS3_JRKS3_EEEvPT_DpOT0_(ptr noundef nonnull align 1 dereferenceable(1) %0, ptr noundef %1, ptr noundef nonnull align 8 dereferenceable(8) %2) #1 comdat align 2 {
  %4 = alloca ptr, align 8
  %5 = alloca ptr, align 8
  %6 = alloca ptr, align 8
  store ptr %0, ptr %4, align 8
  store ptr %1, ptr %5, align 8
  store ptr %2, ptr %6, align 8
  %7 = load ptr, ptr %5, align 8
  %8 = load ptr, ptr %6, align 8
  %9 = load ptr, ptr %8, align 8
  store ptr %9, ptr %7, align 8
  ret void
}

; Function Attrs: mustprogress nounwind uwtable
define linkonce_odr hidden noundef ptr @_ZN9__gnu_cxx16__aligned_membufIPN3p2t8TriangleEE6_M_ptrEv(ptr noundef nonnull align 8 dereferenceable(8) %0) #1 comdat align 2 {
  %2 = alloca ptr, align 8
  store ptr %0, ptr %2, align 8
  %3 = load ptr, ptr %2, align 8
  %4 = call noundef ptr @_ZN9__gnu_cxx16__aligned_membufIPN3p2t8TriangleEE7_M_addrEv(ptr noundef nonnull align 8 dereferenceable(8) %3) #15
  ret ptr %4
}

; Function Attrs: mustprogress uwtable
define linkonce_odr noundef ptr @_ZNSt16allocator_traitsISaISt10_List_nodeIPN3p2t8TriangleEEEE8allocateERS5_m(ptr noundef nonnull align 1 dereferenceable(1) %0, i64 noundef %1) #0 comdat align 2 {
  %3 = alloca ptr, align 8
  %4 = alloca i64, align 8
  store ptr %0, ptr %3, align 8
  store i64 %1, ptr %4, align 8
  %5 = load ptr, ptr %3, align 8
  %6 = load i64, ptr %4, align 8
  %7 = call noundef ptr @_ZNSt15__new_allocatorISt10_List_nodeIPN3p2t8TriangleEEE8allocateEmPKv(ptr noundef nonnull align 1 dereferenceable(1) %5, i64 noundef %6, ptr noundef null)
  ret ptr %7
}

; Function Attrs: mustprogress nounwind uwtable
define linkonce_odr void @_ZNSt15__allocated_ptrISaISt10_List_nodeIPN3p2t8TriangleEEEED2Ev(ptr noundef nonnull align 8 dereferenceable(16) %0) unnamed_addr #1 comdat align 2 personality ptr @__gxx_personality_v0 {
  %2 = alloca ptr, align 8
  store ptr %0, ptr %2, align 8
  %3 = load ptr, ptr %2, align 8
  %4 = getelementptr inbounds nuw %"struct.std::__allocated_ptr", ptr %3, i32 0, i32 1
  %5 = load ptr, ptr %4, align 8
  %6 = icmp ne ptr %5, null
  br i1 %6, label %7, label %13

7:                                                ; preds = %1
  %8 = getelementptr inbounds nuw %"struct.std::__allocated_ptr", ptr %3, i32 0, i32 0
  %9 = load ptr, ptr %8, align 8
  %10 = getelementptr inbounds nuw %"struct.std::__allocated_ptr", ptr %3, i32 0, i32 1
  %11 = load ptr, ptr %10, align 8
  invoke void @_ZNSt16allocator_traitsISaISt10_List_nodeIPN3p2t8TriangleEEEE10deallocateERS5_PS4_m(ptr noundef nonnull align 1 dereferenceable(1) %9, ptr noundef %11, i64 noundef 1)
          to label %12 unwind label %14

12:                                               ; preds = %7
  br label %13

13:                                               ; preds = %12, %1
  ret void

14:                                               ; preds = %7
  %15 = landingpad { ptr, i32 }
          catch ptr null
  %16 = extractvalue { ptr, i32 } %15, 0
  call void @__clang_call_terminate(ptr %16) #18
  unreachable
}

; Function Attrs: mustprogress nounwind uwtable
define linkonce_odr noundef nonnull align 8 dereferenceable(16) ptr @_ZNSt15__allocated_ptrISaISt10_List_nodeIPN3p2t8TriangleEEEEaSEDn(ptr noundef nonnull align 8 dereferenceable(16) %0, ptr %1) #1 comdat align 2 {
  %3 = alloca ptr, align 8
  %4 = alloca ptr, align 8
  store ptr %0, ptr %3, align 8
  store ptr %1, ptr %4, align 8
  %5 = load ptr, ptr %3, align 8
  %6 = getelementptr inbounds nuw %"struct.std::__allocated_ptr", ptr %5, i32 0, i32 1
  store ptr null, ptr %6, align 8
  ret ptr %5
}

; Function Attrs: mustprogress nounwind uwtable
define linkonce_odr void @_ZNSt16allocator_traitsISaISt10_List_nodeIPN3p2t8TriangleEEEE9constructIS3_JRKS3_EEEvRS5_PT_DpOT0_(ptr noundef nonnull align 1 dereferenceable(1) %0, ptr noundef %1, ptr noundef nonnull align 8 dereferenceable(8) %2) #1 comdat align 2 {
  %4 = alloca ptr, align 8
  %5 = alloca ptr, align 8
  %6 = alloca ptr, align 8
  store ptr %0, ptr %4, align 8
  store ptr %1, ptr %5, align 8
  store ptr %2, ptr %6, align 8
  %7 = load ptr, ptr %4, align 8
  %8 = load ptr, ptr %5, align 8
  %9 = load ptr, ptr %6, align 8
  call void @_ZNSt15__new_allocatorISt10_List_nodeIPN3p2t8TriangleEEE9constructIS3_JRKS3_EEEvPT_DpOT0_(ptr noundef nonnull align 1 dereferenceable(1) %7, ptr noundef %8, ptr noundef nonnull align 8 dereferenceable(8) %9) #15
  ret void
}

; Function Attrs: mustprogress nounwind uwtable
define linkonce_odr noundef ptr @_ZNSt10_List_nodeIPN3p2t8TriangleEE9_M_valptrEv(ptr noundef nonnull align 8 dereferenceable(24) %0) #1 comdat align 2 {
  %2 = alloca ptr, align 8
  store ptr %0, ptr %2, align 8
  %3 = load ptr, ptr %2, align 8
  %4 = getelementptr inbounds nuw %"struct.std::_List_node", ptr %3, i32 0, i32 1
  %5 = call noundef ptr @_ZN9__gnu_cxx16__aligned_membufIPN3p2t8TriangleEE6_M_ptrEv(ptr noundef nonnull align 8 dereferenceable(8) %4) #15
  ret ptr %5
}

; Function Attrs: mustprogress nounwind uwtable
define linkonce_odr void @_ZNSt15__allocated_ptrISaISt10_List_nodeIPN3p2t8TriangleEEEEC2ERS5_PS4_(ptr noundef nonnull align 8 dereferenceable(16) %0, ptr noundef nonnull align 1 dereferenceable(1) %1, ptr noundef %2) unnamed_addr #1 comdat align 2 {
  %4 = alloca ptr, align 8
  %5 = alloca ptr, align 8
  %6 = alloca ptr, align 8
  store ptr %0, ptr %4, align 8
  store ptr %1, ptr %5, align 8
  store ptr %2, ptr %6, align 8
  %7 = load ptr, ptr %4, align 8
  %8 = getelementptr inbounds nuw %"struct.std::__allocated_ptr", ptr %7, i32 0, i32 0
  %9 = load ptr, ptr %5, align 8
  store ptr %9, ptr %8, align 8
  %10 = getelementptr inbounds nuw %"struct.std::__allocated_ptr", ptr %7, i32 0, i32 1
  %11 = load ptr, ptr %6, align 8
  store ptr %11, ptr %10, align 8
  ret void
}

; Function Attrs: mustprogress nounwind uwtable
define linkonce_odr noundef nonnull align 1 dereferenceable(1) ptr @_ZNSt7__cxx1110_List_baseIPN3p2t8TriangleESaIS3_EE21_M_get_Node_allocatorEv(ptr noundef nonnull align 8 dereferenceable(24) %0) #1 comdat align 2 {
  %2 = alloca ptr, align 8
  store ptr %0, ptr %2, align 8
  %3 = load ptr, ptr %2, align 8
  %4 = getelementptr inbounds nuw %"class.std::__cxx11::_List_base", ptr %3, i32 0, i32 0
  ret ptr %4
}

; Function Attrs: mustprogress uwtable
define linkonce_odr noundef ptr @_ZNSt7__cxx1110_List_baseIPN3p2t8TriangleESaIS3_EE11_M_get_nodeEv(ptr noundef nonnull align 8 dereferenceable(24) %0) #0 comdat align 2 {
  %2 = alloca ptr, align 8
  store ptr %0, ptr %2, align 8
  %3 = load ptr, ptr %2, align 8
  %4 = getelementptr inbounds nuw %"class.std::__cxx11::_List_base", ptr %3, i32 0, i32 0
  %5 = call noundef ptr @_ZNSt16allocator_traitsISaISt10_List_nodeIPN3p2t8TriangleEEEE8allocateERS5_m(ptr noundef nonnull align 1 dereferenceable(1) %4, i64 noundef 1)
  ret ptr %5
}

; Function Attrs: mustprogress nounwind uwtable
define linkonce_odr void @_ZNSt7__cxx1110_List_baseIPN3p2t8TriangleESaIS3_EE11_M_inc_sizeEm(ptr noundef nonnull align 8 dereferenceable(24) %0, i64 noundef %1) #1 comdat align 2 {
  %3 = alloca ptr, align 8
  %4 = alloca i64, align 8
  store ptr %0, ptr %3, align 8
  store i64 %1, ptr %4, align 8
  %5 = load ptr, ptr %3, align 8
  %6 = load i64, ptr %4, align 8
  %7 = getelementptr inbounds nuw %"class.std::__cxx11::_List_base", ptr %5, i32 0, i32 0
  %8 = getelementptr inbounds nuw %"struct.std::__cxx11::_List_base<p2t::Triangle *, std::allocator<p2t::Triangle *>>::_List_impl", ptr %7, i32 0, i32 0
  %9 = getelementptr inbounds nuw %"struct.std::__detail::_List_node_header", ptr %8, i32 0, i32 1
  %10 = load i64, ptr %9, align 8
  %11 = add i64 %10, %6
  store i64 %11, ptr %9, align 8
  ret void
}

; Function Attrs: mustprogress uwtable
define linkonce_odr noundef ptr @_ZNSt7__cxx114listIPN3p2t8TriangleESaIS3_EE14_M_create_nodeIJRKS3_EEEPSt10_List_nodeIS3_EDpOT_(ptr noundef nonnull align 8 dereferenceable(24) %0, ptr noundef nonnull align 8 dereferenceable(8) %1) #0 comdat align 2 {
  %3 = alloca ptr, align 8
  %4 = alloca ptr, align 8
  %5 = alloca ptr, align 8
  %6 = alloca ptr, align 8
  %7 = alloca %"struct.std::__allocated_ptr", align 8
  store ptr %0, ptr %3, align 8
  store ptr %1, ptr %4, align 8
  %8 = load ptr, ptr %3, align 8
  call void @llvm.lifetime.start.p0(i64 8, ptr %5) #15
  %9 = call noundef ptr @_ZNSt7__cxx1110_List_baseIPN3p2t8TriangleESaIS3_EE11_M_get_nodeEv(ptr noundef nonnull align 8 dereferenceable(24) %8)
  store ptr %9, ptr %5, align 8
  call void @llvm.lifetime.start.p0(i64 8, ptr %6) #15
  %10 = call noundef nonnull align 1 dereferenceable(1) ptr @_ZNSt7__cxx1110_List_baseIPN3p2t8TriangleESaIS3_EE21_M_get_Node_allocatorEv(ptr noundef nonnull align 8 dereferenceable(24) %8) #15
  store ptr %10, ptr %6, align 8
  call void @llvm.lifetime.start.p0(i64 16, ptr %7) #15
  %11 = load ptr, ptr %6, align 8
  %12 = load ptr, ptr %5, align 8
  call void @_ZNSt15__allocated_ptrISaISt10_List_nodeIPN3p2t8TriangleEEEEC2ERS5_PS4_(ptr noundef nonnull align 8 dereferenceable(16) %7, ptr noundef nonnull align 1 dereferenceable(1) %11, ptr noundef %12) #15
  %13 = load ptr, ptr %6, align 8
  %14 = load ptr, ptr %5, align 8
  %15 = call noundef ptr @_ZNSt10_List_nodeIPN3p2t8TriangleEE9_M_valptrEv(ptr noundef nonnull align 8 dereferenceable(24) %14)
  %16 = load ptr, ptr %4, align 8
  call void @_ZNSt16allocator_traitsISaISt10_List_nodeIPN3p2t8TriangleEEEE9constructIS3_JRKS3_EEEvRS5_PT_DpOT0_(ptr noundef nonnull align 1 dereferenceable(1) %13, ptr noundef %15, ptr noundef nonnull align 8 dereferenceable(8) %16) #15
  %17 = call noundef nonnull align 8 dereferenceable(16) ptr @_ZNSt15__allocated_ptrISaISt10_List_nodeIPN3p2t8TriangleEEEEaSEDn(ptr noundef nonnull align 8 dereferenceable(16) %7, ptr null) #15
  %18 = load ptr, ptr %5, align 8
  call void @_ZNSt15__allocated_ptrISaISt10_List_nodeIPN3p2t8TriangleEEEED2Ev(ptr noundef nonnull align 8 dereferenceable(16) %7) #15
  call void @llvm.lifetime.end.p0(i64 16, ptr %7) #15
  call void @llvm.lifetime.end.p0(i64 8, ptr %6) #15
  call void @llvm.lifetime.end.p0(i64 8, ptr %5) #15
  ret ptr %18
}

; Function Attrs: mustprogress nounwind uwtable
define linkonce_odr void @_ZNSt14_List_iteratorIPN3p2t8TriangleEEC2EPNSt8__detail15_List_node_baseE(ptr noundef nonnull align 8 dereferenceable(8) %0, ptr noundef %1) unnamed_addr #1 comdat align 2 {
  %3 = alloca ptr, align 8
  %4 = alloca ptr, align 8
  store ptr %0, ptr %3, align 8
  store ptr %1, ptr %4, align 8
  %5 = load ptr, ptr %3, align 8
  %6 = getelementptr inbounds nuw %"struct.std::_List_iterator", ptr %5, i32 0, i32 0
  %7 = load ptr, ptr %4, align 8
  store ptr %7, ptr %6, align 8
  ret void
}

; Function Attrs: mustprogress uwtable
define linkonce_odr void @_ZNSt7__cxx114listIPN3p2t8TriangleESaIS3_EE9_M_insertIJRKS3_EEEvSt14_List_iteratorIS3_EDpOT_(ptr noundef nonnull align 8 dereferenceable(24) %0, ptr %1, ptr noundef nonnull align 8 dereferenceable(8) %2) #0 comdat align 2 {
  %4 = alloca %"struct.std::_List_iterator", align 8
  %5 = alloca ptr, align 8
  %6 = alloca ptr, align 8
  %7 = alloca ptr, align 8
  %8 = getelementptr inbounds nuw %"struct.std::_List_iterator", ptr %4, i32 0, i32 0
  store ptr %1, ptr %8, align 8
  store ptr %0, ptr %5, align 8
  store ptr %2, ptr %6, align 8
  %9 = load ptr, ptr %5, align 8
  call void @llvm.lifetime.start.p0(i64 8, ptr %7) #15
  %10 = load ptr, ptr %6, align 8
  %11 = call noundef ptr @_ZNSt7__cxx114listIPN3p2t8TriangleESaIS3_EE14_M_create_nodeIJRKS3_EEEPSt10_List_nodeIS3_EDpOT_(ptr noundef nonnull align 8 dereferenceable(24) %9, ptr noundef nonnull align 8 dereferenceable(8) %10)
  store ptr %11, ptr %7, align 8
  %12 = load ptr, ptr %7, align 8
  %13 = getelementptr inbounds nuw %"struct.std::_List_iterator", ptr %4, i32 0, i32 0
  %14 = load ptr, ptr %13, align 8
  call void @_ZNSt8__detail15_List_node_base7_M_hookEPS0_(ptr noundef nonnull align 8 dereferenceable(16) %12, ptr noundef %14) #15
  call void @_ZNSt7__cxx1110_List_baseIPN3p2t8TriangleESaIS3_EE11_M_inc_sizeEm(ptr noundef nonnull align 8 dereferenceable(24) %9, i64 noundef 1)
  call void @llvm.lifetime.end.p0(i64 8, ptr %7) #15
  ret void
}

; Function Attrs: mustprogress nounwind uwtable
define linkonce_odr ptr @_ZNSt7__cxx114listIPN3p2t8TriangleESaIS3_EE3endEv(ptr noundef nonnull align 8 dereferenceable(24) %0) #1 comdat align 2 {
  %2 = alloca %"struct.std::_List_iterator", align 8
  %3 = alloca ptr, align 8
  store ptr %0, ptr %3, align 8
  %4 = load ptr, ptr %3, align 8
  %5 = getelementptr inbounds nuw %"class.std::__cxx11::_List_base", ptr %4, i32 0, i32 0
  %6 = getelementptr inbounds nuw %"struct.std::__cxx11::_List_base<p2t::Triangle *, std::allocator<p2t::Triangle *>>::_List_impl", ptr %5, i32 0, i32 0
  call void @_ZNSt14_List_iteratorIPN3p2t8TriangleEEC2EPNSt8__detail15_List_node_baseE(ptr noundef nonnull align 8 dereferenceable(8) %2, ptr noundef %6) #15
  %7 = getelementptr inbounds nuw %"struct.std::_List_iterator", ptr %2, i32 0, i32 0
  %8 = load ptr, ptr %7, align 8
  ret ptr %8
}

; Function Attrs: mustprogress uwtable
define linkonce_odr void @_ZNSt7__cxx114listIPN3p2t8TriangleESaIS3_EE9push_backERKS3_(ptr noundef nonnull align 8 dereferenceable(24) %0, ptr noundef nonnull align 8 dereferenceable(8) %1) #0 comdat align 2 {
  %3 = alloca ptr, align 8
  %4 = alloca ptr, align 8
  %5 = alloca %"struct.std::_List_iterator", align 8
  store ptr %0, ptr %3, align 8
  store ptr %1, ptr %4, align 8
  %6 = load ptr, ptr %3, align 8
  %7 = call ptr @_ZNSt7__cxx114listIPN3p2t8TriangleESaIS3_EE3endEv(ptr noundef nonnull align 8 dereferenceable(24) %6) #15
  %8 = getelementptr inbounds nuw %"struct.std::_List_iterator", ptr %5, i32 0, i32 0
  store ptr %7, ptr %8, align 8
  %9 = load ptr, ptr %4, align 8
  %10 = getelementptr inbounds nuw %"struct.std::_List_iterator", ptr %5, i32 0, i32 0
  %11 = load ptr, ptr %10, align 8
  call void @_ZNSt7__cxx114listIPN3p2t8TriangleESaIS3_EE9_M_insertIJRKS3_EEEvSt14_List_iteratorIS3_EDpOT_(ptr noundef nonnull align 8 dereferenceable(24) %6, ptr %11, ptr noundef nonnull align 8 dereferenceable(8) %9)
  ret void
}

; Function Attrs: mustprogress uwtable
define hidden void @_ZN3p2t12SweepContext8AddToMapEPNS_8TriangleE(ptr noundef nonnull align 8 dereferenceable(200) %0, ptr noundef %1) #0 align 2 {
  %3 = alloca ptr, align 8
  %4 = alloca ptr, align 8
  store ptr %0, ptr %3, align 8
  store ptr %1, ptr %4, align 8
  %5 = load ptr, ptr %3, align 8
  %6 = getelementptr inbounds nuw %"class.p2t::SweepContext", ptr %5, i32 0, i32 4
  call void @_ZNSt7__cxx114listIPN3p2t8TriangleESaIS3_EE9push_backERKS3_(ptr noundef nonnull align 8 dereferenceable(24) %6, ptr noundef nonnull align 8 dereferenceable(8) %4)
  ret void
}