; Function Attrs: mustprogress uwtable
define hidden void @_ZN3p2t12SweepContext8AddToMapEPNS_8TriangleE(ptr noundef nonnull align 8 dereferenceable(200) %0, ptr noundef %1) local_unnamed_addr #0 align 2 personality ptr @__gxx_personality_v0 {
  %3 = getelementptr inbounds nuw i8, ptr %0, i64 104
  %4 = tail call noalias noundef nonnull dereferenceable(24) ptr @_Znwm(i64 noundef 24) #18
  %5 = getelementptr inbounds nuw i8, ptr %4, i64 16
  store ptr %1, ptr %5, align 8
  tail call void @_ZNSt8__detail15_List_node_base7_M_hookEPS0_(ptr noundef nonnull align 8 dereferenceable(16) %4, ptr noundef nonnull align 8 dereferenceable(24) %3) #20
  %6 = getelementptr inbounds nuw i8, ptr %0, i64 120
  %7 = load i64, ptr %6, align 8
  %8 = add i64 %7, 1
  store i64 %8, ptr %6, align 8
  ret void
}